; Function Attrs: nounwind uwtable
define internal fastcc void @"_ZZN9grpc_core22ClientPromiseBasedCall12StartPromiseESt10unique_ptrI19grpc_metadata_batchNS_5Arena13PooledDeleterEERKNS_16PromiseBasedCall10CompletionERNS_5Party11BulkSpawnerEEN3$_1D2Ev"(ptr nocapture noundef nonnull align 8 dereferenceable(32) %this) unnamed_addr #9 align 2 personality ptr @__gxx_personality_v0 {
entry:
  %0 = getelementptr inbounds i8, ptr %this, i64 24
  %1 = load ptr, ptr %0, align 8
  %cmp.not.i = icmp eq ptr %1, null
  br i1 %cmp.not.i, label %_ZN9grpc_core37ClientInitialMetadataOutstandingTokenD2Ev.exit, label %if.then.i

if.then.i:                                        ; preds = %entry
  store i8 0, ptr %1, align 2
  %has_value_.i.i = getelementptr inbounds i8, ptr %1, i64 1
  store i8 1, ptr %has_value_.i.i, align 1
  %waiter_.i.i = getelementptr inbounds i8, ptr %1, i64 2
  %2 = load i16, ptr %waiter_.i.i, align 2
  %cmp.i.i.i = icmp eq i16 %2, 0
  br i1 %cmp.i.i.i, label %_ZN9grpc_core37ClientInitialMetadataOutstandingTokenD2Ev.exit, label %if.end.i.i.i

if.end.i.i.i:                                     ; preds = %if.then.i
  br i1 icmp ne (ptr @_ZTHN9grpc_core8Activity19g_current_activity_E, ptr null), label %3, label %_ZN9grpc_core8Activity7currentEv.exit.i.i.i

3:                                                ; preds = %if.end.i.i.i
  invoke void @_ZTHN9grpc_core8Activity19g_current_activity_E()
          to label %.noexc.i unwind label %terminate.lpad.i

.noexc.i:                                         ; preds = %3
  %.pre.i.i.i = load i16, ptr %waiter_.i.i, align 2
  br label %_ZN9grpc_core8Activity7currentEv.exit.i.i.i

_ZN9grpc_core8Activity7currentEv.exit.i.i.i:      ; preds = %.noexc.i, %if.end.i.i.i
  %4 = phi i16 [ %2, %if.end.i.i.i ], [ %.pre.i.i.i, %.noexc.i ]
  %5 = tail call noundef align 8 ptr @llvm.threadlocal.address.p0(ptr align 8 @_ZN9grpc_core8Activity19g_current_activity_E)
  %6 = load ptr, ptr %5, align 8
  store i16 0, ptr %waiter_.i.i, align 2
  %vtable.i.i.i = load ptr, ptr %6, align 8
  %vfn.i.i.i = getelementptr inbounds i8, ptr %vtable.i.i.i, i64 24
  %7 = load ptr, ptr %vfn.i.i.i, align 8
  invoke void %7(ptr noundef nonnull align 8 dereferenceable(8) %6, i16 noundef zeroext %4)
          to label %_ZN9grpc_core37ClientInitialMetadataOutstandingTokenD2Ev.exit unwind label %terminate.lpad.i

terminate.lpad.i:                                 ; preds = %_ZN9grpc_core8Activity7currentEv.exit.i.i.i, %3
  %8 = landingpad { ptr, i32 }
          catch ptr null
  %9 = extractvalue { ptr, i32 } %8, 0
  tail call void @__clang_call_terminate(ptr %9) #30
  unreachable

_ZN9grpc_core37ClientInitialMetadataOutstandingTokenD2Ev.exit: ; preds = %entry, %if.then.i, %_ZN9grpc_core8Activity7currentEv.exit.i.i.i
  %add.ptr.i.i.i.i.i = getelementptr inbounds i8, ptr %this, i64 16
  %10 = load ptr, ptr %add.ptr.i.i.i.i.i, align 8
  %cmp.not.i1 = icmp eq ptr %10, null
  br i1 %cmp.not.i1, label %_ZNSt10unique_ptrI19grpc_metadata_batchN9grpc_core5Arena13PooledDeleterEED2Ev.exit, label %if.then.i2

if.then.i2:                                       ; preds = %_ZN9grpc_core37ClientInitialMetadataOutstandingTokenD2Ev.exit
  %11 = getelementptr inbounds i8, ptr %this, i64 8
  %12 = load i8, ptr %11, align 8
  %13 = and i8 %12, 1
  %tobool.not.i.i = icmp eq i8 %13, 0
  br i1 %tobool.not.i.i, label %_ZNSt10unique_ptrI19grpc_metadata_batchN9grpc_core5Arena13PooledDeleterEED2Ev.exit, label %delete.notnull.i.i

delete.notnull.i.i:                               ; preds = %if.then.i2
  tail call void @_ZN9grpc_core11MetadataMapI19grpc_metadata_batchJNS_16HttpPathMetadataENS_21HttpAuthorityMetadataENS_18HttpMethodMetadataENS_18HttpStatusMetadataENS_18HttpSchemeMetadataENS_19ContentTypeMetadataENS_10TeMetadataENS_20GrpcEncodingMetadataENS_27GrpcInternalEncodingRequestENS_26GrpcAcceptEncodingMetadataENS_18GrpcStatusMetadataENS_19GrpcTimeoutMetadataENS_31GrpcPreviousRpcAttemptsMetadataENS_27GrpcRetryPushbackMsMetadataENS_17UserAgentMetadataENS_19GrpcMessageMetadataENS_12HostMetadataENS_30EndpointLoadMetricsBinMetadataENS_26GrpcServerStatsBinMetadataENS_20GrpcTraceBinMetadataENS_19GrpcTagsBinMetadataENS_25GrpcLbClientStatsMetadataENS_17LbCostBinMetadataENS_15LbTokenMetadataENS_18XEnvoyPeerMetadataENS_22GrpcStreamNetworkStateENS_10PeerStringENS_17GrpcStatusContextENS_18GrpcStatusFromWireENS_20GrpcCallWasCancelledENS_12WaitForReadyENS_16GrpcTrailersOnlyENS_10GrpcTarPitENS_20GrpcRegisteredMethodEEED2Ev(ptr noundef nonnull align 8 dereferenceable(568) %10) #28
  tail call void @_ZdlPv(ptr noundef nonnull %10) #31
  br label %_ZNSt10unique_ptrI19grpc_metadata_batchN9grpc_core5Arena13PooledDeleterEED2Ev.exit

_ZNSt10unique_ptrI19grpc_metadata_batchN9grpc_core5Arena13PooledDeleterEED2Ev.exit: ; preds = %_ZN9grpc_core37ClientInitialMetadataOutstandingTokenD2Ev.exit, %if.then.i2, %delete.notnull.i.i
  store ptr null, ptr %add.ptr.i.i.i.i.i, align 8
  ret void
}